// AUTO-GENERATED Phase 1 link stubs — genuinely-weak no-op funcs + zeroed data.
.text
.globl __port_noop
.type __port_noop, @function
__port_noop:
    xorq %rax, %rax
    ret
.weak _Z11glBlendFuncii
.type _Z11glBlendFuncii, @function
_Z11glBlendFuncii:
    jmp __port_noop
.weak _Z11glDepthMaskb
.type _Z11glDepthMaskb, @function
_Z11glDepthMaskb:
    jmp __port_noop
.weak _Z11glLineWidthf
.type _Z11glLineWidthf, @function
_Z11glLineWidthf:
    jmp __port_noop
.weak _Z11glPopMatrixv
.type _Z11glPopMatrixv, @function
_Z11glPopMatrixv:
    jmp __port_noop
.weak _Z12glMatrixModei
.type _Z12glMatrixModei, @function
_Z12glMatrixModei:
    jmp __port_noop
.weak _Z12glPushMatrixv
.type _Z12glPushMatrixv, @function
_Z12glPushMatrixv:
    jmp __port_noop
.weak _Z12glTranslateffff
.type _Z12glTranslateffff, @function
_Z12glTranslateffff:
    jmp __port_noop
.weak _Z14glLoadIdentityv
.type _Z14glLoadIdentityv, @function
_Z14glLoadIdentityv:
    jmp __port_noop
.weak _Z17glMultiTexCoord2fiff
.type _Z17glMultiTexCoord2fiff, @function
_Z17glMultiTexCoord2fiff:
    jmp __port_noop
.weak _Z7glCleari
.type _Z7glCleari, @function
_Z7glCleari:
    jmp __port_noop
.weak _Z7glOrthoffffff
.type _Z7glOrthoffffff, @function
_Z7glOrthoffffff:
    jmp __port_noop
.weak _Z7MemSecti
.type _Z7MemSecti, @function
_Z7MemSecti:
    jmp __port_noop
.weak _Z8glEnablei
.type _Z8glEnablei, @function
_Z8glEnablei:
    jmp __port_noop
.weak _Z8glScaleffff
.type _Z8glScaleffff, @function
_Z8glScaleffff:
    jmp __port_noop
.weak _Z9glColor4fffff
.type _Z9glColor4fffff, @function
_Z9glColor4fffff:
    jmp __port_noop
.weak _Z9glDisablei
.type _Z9glDisablei, @function
_Z9glDisablei:
    jmp __port_noop
.weak _Z9glRotatefffff
.type _Z9glRotatefffff, @function
_Z9glRotatefffff:
    jmp __port_noop
.weak _ZN10CStorage11GetSaveDataEPvPj
.type _ZN10CStorage11GetSaveDataEPvPj, @function
_ZN10CStorage11GetSaveDataEPvPj:
    jmp __port_noop
.weak _ZN10CStorage11GetSaveSizeEv
.type _ZN10CStorage11GetSaveSizeEv, @function
_ZN10CStorage11GetSaveSizeEv:
    jmp __port_noop
.weak _ZN10CStorage12GetDLCOffersEiPFiPvijiES0_j
.type _ZN10CStorage12GetDLCOffersEiPFiPvijiES0_j, @function
_ZN10CStorage12GetDLCOffersEiPFiPvijiES0_j:
    jmp __port_noop
.weak _ZN10CStorage12SaveSaveDataEPFiPvbES0_
.type _ZN10CStorage12SaveSaveDataEPFiPvbES0_, @function
_ZN10CStorage12SaveSaveDataEPFiPvbES0_:
    jmp __port_noop
.weak _ZN10CStorage12SetSaveTitleEPKw
.type _ZN10CStorage12SetSaveTitleEPKw, @function
_ZN10CStorage12SetSaveTitleEPKw:
    jmp __port_noop
.weak _ZN10CStorage13DoesSaveExistEPb
.type _ZN10CStorage13DoesSaveExistEPb, @function
_ZN10CStorage13DoesSaveExistEPb:
    jmp __port_noop
.weak _ZN10CStorage13ResetSaveDataEv
.type _ZN10CStorage13ResetSaveDataEv, @function
_ZN10CStorage13ResetSaveDataEv:
    jmp __port_noop
.weak _ZN10CStorage13SetSaveImagesEPhjS0_jS0_j
.type _ZN10CStorage13SetSaveImagesEPhjS0_jS0_j, @function
_ZN10CStorage13SetSaveImagesEPhjS0_jS0_j:
    jmp __port_noop
.weak _ZN10CStorage14ClearDLCOffersEv
.type _ZN10CStorage14ClearDLCOffersEv, @function
_ZN10CStorage14ClearDLCOffersEv:
    jmp __port_noop
.weak _ZN10CStorage15GetInstalledDLCEiPFiPviiES0_
.type _ZN10CStorage15GetInstalledDLCEiPFiPviiES0_, @function
_ZN10CStorage15GetInstalledDLCEiPFiPviiES0_:
    jmp __port_noop
.weak _ZN10CStorage15GetSaveDisabledEv
.type _ZN10CStorage15GetSaveDisabledEv, @function
_ZN10CStorage15GetSaveDisabledEv:
    jmp __port_noop
.weak _ZN10CStorage16AllocateSaveDataEj
.type _ZN10CStorage16AllocateSaveDataEj, @function
_ZN10CStorage16AllocateSaveDataEj:
    jmp __port_noop
.weak _ZN10CStorage17MountInstalledDLCEijPFiPvijjES0_PKc
.type _ZN10CStorage17MountInstalledDLCEijPFiPvijjES0_PKc, @function
_ZN10CStorage17MountInstalledDLCEijPFiPvijjES0_PKc:
    jmp __port_noop
.weak _ZN10CStorage19GetSaveUniqueNumberEPi
.type _ZN10CStorage19GetSaveUniqueNumberEPi, @function
_ZN10CStorage19GetSaveUniqueNumberEPi:
    jmp __port_noop
.weak _ZN10CStorage19UnmountInstalledDLCEPKc
.type _ZN10CStorage19UnmountInstalledDLCEPKc, @function
_ZN10CStorage19UnmountInstalledDLCEPKc:
    jmp __port_noop
.weak _ZN10CStorage21GetMountedDLCFileListEPKcRSt6vectorINSt7__cxx1112basic_stringIcSt11char_traitsIcESaIcEEESaIS8_EE
.type _ZN10CStorage21GetMountedDLCFileListEPKcRSt6vectorINSt7__cxx1112basic_stringIcSt11char_traitsIcESaIcEEESaIS8_EE, @function
_ZN10CStorage21GetMountedDLCFileListEPKcRSt6vectorINSt7__cxx1112basic_stringIcSt11char_traitsIcESaIcEEESaIS8_EE:
    jmp __port_noop
.weak _ZN10CStorage21GetSaveUniqueFilenameEPc
.type _ZN10CStorage21GetSaveUniqueFilenameEPc, @function
_ZN10CStorage21GetSaveUniqueFilenameEPc:
    jmp __port_noop
.weak _ZN10CStorage21SetSaveDeviceSelectedEjb
.type _ZN10CStorage21SetSaveDeviceSelectedEjb, @function
_ZN10CStorage21SetSaveDeviceSelectedEjb:
    jmp __port_noop
.weak _ZN10CStorage4TickEv
.type _ZN10CStorage4TickEv, @function
_ZN10CStorage4TickEv:
    jmp __port_noop
.weak _ZN10CStorage6GetDLCEj
.type _ZN10CStorage6GetDLCEj, @function
_ZN10CStorage6GetDLCEj:
    jmp __port_noop
.weak _ZN10SheepModelC1Ev
.type _ZN10SheepModelC1Ev, @function
_ZN10SheepModelC1Ev:
    jmp __port_noop
.weak _ZN10SlimeModelC1Ei
.type _ZN10SlimeModelC1Ei, @function
_ZN10SlimeModelC1Ei:
    jmp __port_noop
.weak _ZN10SquidModelC1Ev
.type _ZN10SquidModelC1Ev, @function
_ZN10SquidModelC1Ev:
    jmp __port_noop
.weak _ZN10Tesselator11getInstanceEv
.type _ZN10Tesselator11getInstanceEv, @function
_ZN10Tesselator11getInstanceEv:
    jmp __port_noop
.weak _ZN10Tesselator3endEv
.type _ZN10Tesselator3endEv, @function
_ZN10Tesselator3endEv:
    jmp __port_noop
.weak _ZN10Tesselator5beginEi
.type _ZN10Tesselator5beginEi, @function
_ZN10Tesselator5beginEi:
    jmp __port_noop
.weak _ZN10Tesselator5beginEv
.type _ZN10Tesselator5beginEv, @function
_ZN10Tesselator5beginEv:
    jmp __port_noop
.weak _ZN10Tesselator5colorEi
.type _ZN10Tesselator5colorEi, @function
_ZN10Tesselator5colorEi:
    jmp __port_noop
.weak _ZN10Tesselator6vertexEfff
.type _ZN10Tesselator6vertexEfff, @function
_ZN10Tesselator6vertexEfff:
    jmp __port_noop
.weak _ZN10Tesselator8vertexUVEfffff
.type _ZN10Tesselator8vertexUVEfffff, @function
_ZN10Tesselator8vertexUVEfffff:
    jmp __port_noop
.weak _ZN11CowRendererC1EP5Modelf
.type _ZN11CowRendererC1EP5Modelf, @function
_ZN11CowRendererC1EP5Modelf:
    jmp __port_noop
.weak _ZN11LocalPlayer10isSneakingEv
.type _ZN11LocalPlayer10isSneakingEv, @function
_ZN11LocalPlayer10isSneakingEv:
    jmp __port_noop
.weak _ZN11LocalPlayer11openFurnaceESt10shared_ptrI17FurnaceTileEntityE
.type _ZN11LocalPlayer11openFurnaceESt10shared_ptrI17FurnaceTileEntityE, @function
_ZN11LocalPlayer11openFurnaceESt10shared_ptrI17FurnaceTileEntityE:
    jmp __port_noop
.weak _ZN11LocalPlayer11openTradingESt10shared_ptrI8MerchantE
.type _ZN11LocalPlayer11openTradingESt10shared_ptrI8MerchantE, @function
_ZN11LocalPlayer11openTradingESt10shared_ptrI8MerchantE:
    jmp __port_noop
.weak _ZN11LocalPlayer12openTextEditESt10shared_ptrI14SignTileEntityE
.type _ZN11LocalPlayer12openTextEditESt10shared_ptrI14SignTileEntityE, @function
_ZN11LocalPlayer12openTextEditESt10shared_ptrI14SignTileEntityE:
    jmp __port_noop
.weak _ZN11LocalPlayer12serverAiStepEv
.type _ZN11LocalPlayer12serverAiStepEv, @function
_ZN11LocalPlayer12serverAiStepEv:
    jmp __port_noop
.weak _ZN11LocalPlayer12setSprintingEb
.type _ZN11LocalPlayer12setSprintingEb, @function
_ZN11LocalPlayer12setSprintingEb:
    jmp __port_noop
.weak _ZN11LocalPlayer13hasPermissionE12EGameCommand
.type _ZN11LocalPlayer13hasPermissionE12EGameCommand, @function
_ZN11LocalPlayer13hasPermissionE12EGameCommand:
    jmp __port_noop
.weak _ZN11LocalPlayer13isEffectiveAIEv
.type _ZN11LocalPlayer13isEffectiveAIEv, @function
_ZN11LocalPlayer13isEffectiveAIEv:
    jmp __port_noop
.weak _ZN11LocalPlayer13openContainerESt10shared_ptrI9ContainerE
.type _ZN11LocalPlayer13openContainerESt10shared_ptrI9ContainerE, @function
_ZN11LocalPlayer13openContainerESt10shared_ptrI9ContainerE:
    jmp __port_noop
.weak _ZN11LocalPlayer13startCraftingEiii
.type _ZN11LocalPlayer13startCraftingEiii, @function
_ZN11LocalPlayer13startCraftingEiii:
    jmp __port_noop
.weak _ZN11LocalPlayer14animateRespawnEv
.type _ZN11LocalPlayer14animateRespawnEv, @function
_ZN11LocalPlayer14animateRespawnEv:
    jmp __port_noop
.weak _ZN11LocalPlayer14closeContainerEv
.type _ZN11LocalPlayer14closeContainerEv, @function
_ZN11LocalPlayer14closeContainerEv:
    jmp __port_noop
.weak _ZN11LocalPlayer14startRepairingEiii
.type _ZN11LocalPlayer14startRepairingEiii, @function
_ZN11LocalPlayer14startRepairingEiii:
    jmp __port_noop
.weak _ZN11LocalPlayer15changeDimensionEi
.type _ZN11LocalPlayer15changeDimensionEi, @function
_ZN11LocalPlayer15changeDimensionEi:
    jmp __port_noop
.weak _ZN11LocalPlayer15startEnchantingEiii
.type _ZN11LocalPlayer15startEnchantingEiii, @function
_ZN11LocalPlayer15startEnchantingEiii:
    jmp __port_noop
.weak _ZN11LocalPlayer16openBrewingStandESt10shared_ptrI22BrewingStandTileEntityE
.type _ZN11LocalPlayer16openBrewingStandESt10shared_ptrI22BrewingStandTileEntityE, @function
_ZN11LocalPlayer16openBrewingStandESt10shared_ptrI22BrewingStandTileEntityE:
    jmp __port_noop
.weak _ZN11LocalPlayer17handleCollectItemESt10shared_ptrI12ItemInstanceE
.type _ZN11LocalPlayer17handleCollectItemESt10shared_ptrI12ItemInstanceE, @function
_ZN11LocalPlayer17handleCollectItemESt10shared_ptrI12ItemInstanceE:
    jmp __port_noop
.weak _ZN11LocalPlayer18updateRichPresenceEv
.type _ZN11LocalPlayer18updateRichPresenceEv, @function
_ZN11LocalPlayer18updateRichPresenceEv:
    jmp __port_noop
.weak _ZN11LocalPlayer19setExperienceValuesEfii
.type _ZN11LocalPlayer19setExperienceValuesEfii, @function
_ZN11LocalPlayer19setExperienceValuesEfii:
    jmp __port_noop
.weak _ZN11LocalPlayer20addAdditonalSaveDataEP11CompoundTag
.type _ZN11LocalPlayer20addAdditonalSaveDataEP11CompoundTag, @function
_ZN11LocalPlayer20addAdditonalSaveDataEP11CompoundTag:
    jmp __port_noop
.weak _ZN11LocalPlayer20displayClientMessageEi
.type _ZN11LocalPlayer20displayClientMessageEi, @function
_ZN11LocalPlayer20displayClientMessageEi:
    jmp __port_noop
.weak _ZN11LocalPlayer22getFieldOfViewModifierEv
.type _ZN11LocalPlayer22getFieldOfViewModifierEv, @function
_ZN11LocalPlayer22getFieldOfViewModifierEv:
    jmp __port_noop
.weak _ZN11LocalPlayer22readAdditionalSaveDataEP11CompoundTag
.type _ZN11LocalPlayer22readAdditionalSaveDataEP11CompoundTag, @function
_ZN11LocalPlayer22readAdditionalSaveDataEP11CompoundTag:
    jmp __port_noop
.weak _ZN11LocalPlayer4critESt10shared_ptrI6EntityE
.type _ZN11LocalPlayer4critESt10shared_ptrI6EntityE, @function
_ZN11LocalPlayer4critESt10shared_ptrI6EntityE:
    jmp __port_noop
.weak _ZN11LocalPlayer4moveEdddb
.type _ZN11LocalPlayer4moveEdddb, @function
_ZN11LocalPlayer4moveEdddb:
    jmp __port_noop
.weak _ZN11LocalPlayer4takeESt10shared_ptrI6EntityEi
.type _ZN11LocalPlayer4takeESt10shared_ptrI6EntityEi, @function
_ZN11LocalPlayer4takeESt10shared_ptrI6EntityEi:
    jmp __port_noop
.weak _ZN11LocalPlayer6aiStepEv
.type _ZN11LocalPlayer6aiStepEv, @function
_ZN11LocalPlayer6aiStepEv:
    jmp __port_noop
.weak _ZN11LocalPlayer6hurtToEi20ETelemetryChallenges
.type _ZN11LocalPlayer6hurtToEi20ETelemetryChallenges, @function
_ZN11LocalPlayer6hurtToEi20ETelemetryChallenges:
    jmp __port_noop
.weak _ZN11LocalPlayer8openTrapESt10shared_ptrI19DispenserTileEntityE
.type _ZN11LocalPlayer8openTrapESt10shared_ptrI19DispenserTileEntityE, @function
_ZN11LocalPlayer8openTrapESt10shared_ptrI19DispenserTileEntityE:
    jmp __port_noop
.weak _ZN11LocalPlayer9awardStatEP4Stat15arrayWithLengthIhE
.type _ZN11LocalPlayer9awardStatEP4Stat15arrayWithLengthIhE, @function
_ZN11LocalPlayer9awardStatEP4Stat15arrayWithLengthIhE:
    jmp __port_noop
.weak _ZN11LocalPlayer9magicCritESt10shared_ptrI6EntityE
.type _ZN11LocalPlayer9magicCritESt10shared_ptrI6EntityE, @function
_ZN11LocalPlayer9magicCritESt10shared_ptrI6EntityE:
    jmp __port_noop
.weak _ZN11LocalPlayer9onCraftedESt10shared_ptrI12ItemInstanceE
.type _ZN11LocalPlayer9onCraftedESt10shared_ptrI12ItemInstanceE, @function
_ZN11LocalPlayer9onCraftedESt10shared_ptrI12ItemInstanceE:
    jmp __port_noop
.weak _ZN11LocalPlayerC2EP9MinecraftP5LevelP4Useri
.type _ZN11LocalPlayerC2EP9MinecraftP5LevelP4Useri, @function
_ZN11LocalPlayerC2EP9MinecraftP5LevelP4Useri:
    jmp __port_noop
.weak _ZN11LocalPlayerD2Ev
.type _ZN11LocalPlayerD2Ev, @function
_ZN11LocalPlayerD2Ev:
    jmp __port_noop
.weak _ZN11MobRendererC1EP5Modelf
.type _ZN11MobRendererC1EP5Modelf, @function
_ZN11MobRendererC1EP5Modelf:
    jmp __port_noop
.weak _ZN11OzelotModelC1Ev
.type _ZN11OzelotModelC1Ev, @function
_ZN11OzelotModelC1Ev:
    jmp __port_noop
.weak _ZN11PigRendererC1EP5ModelS1_f
.type _ZN11PigRendererC1EP5ModelS1_f, @function
_ZN11PigRendererC1EP5ModelS1_f:
    jmp __port_noop
.weak _ZN11SoundEngine18SetStreamingSoundsEiiiiiii
.type _ZN11SoundEngine18SetStreamingSoundsEiiiiiii, @function
_ZN11SoundEngine18SetStreamingSoundsEiiiiiii:
    jmp __port_noop
.weak _ZN11TntRendererC1Ev
.type _ZN11TntRendererC1Ev, @function
_ZN11TntRendererC1Ev:
    jmp __port_noop
.weak _ZN11ZombieModelC1Ev
.type _ZN11ZombieModelC1Ev, @function
_ZN11ZombieModelC1Ev:
    jmp __port_noop
.weak _ZN12BoatRendererC1Ev
.type _ZN12BoatRendererC1Ev, @function
_ZN12BoatRendererC1Ev:
    jmp __port_noop
.weak _ZN12ChickenModelC1Ev
.type _ZN12ChickenModelC1Ev, @function
_ZN12ChickenModelC1Ev:
    jmp __port_noop
.weak _ZN12CritParticle27CritParticlePostConstructorEv
.type _ZN12CritParticle27CritParticlePostConstructorEv, @function
_ZN12CritParticle27CritParticlePostConstructorEv:
    jmp __port_noop
.weak _ZN12CritParticleC1EP5LevelSt10shared_ptrI6EntityE
.type _ZN12CritParticleC1EP5LevelSt10shared_ptrI6EntityE, @function
_ZN12CritParticleC1EP5LevelSt10shared_ptrI6EntityE:
    jmp __port_noop
.weak _ZN12CritParticleC1EP5LevelSt10shared_ptrI6EntityE14ePARTICLE_TYPE
.type _ZN12CritParticleC1EP5LevelSt10shared_ptrI6EntityE14ePARTICLE_TYPE, @function
_ZN12CritParticleC1EP5LevelSt10shared_ptrI6EntityE14ePARTICLE_TYPE:
    jmp __port_noop
.weak _ZN12FullTutorialC1Eib
.type _ZN12FullTutorialC1Eib, @function
_ZN12FullTutorialC1Eib:
    jmp __port_noop
.weak _ZN12GameRenderer12AddForDeleteEP17SparseDataStorage
.type _ZN12GameRenderer12AddForDeleteEP17SparseDataStorage, @function
_ZN12GameRenderer12AddForDeleteEP17SparseDataStorage:
    jmp __port_noop
.weak _ZN12GameRenderer12AddForDeleteEP18SparseLightStorage
.type _ZN12GameRenderer12AddForDeleteEP18SparseLightStorage, @function
_ZN12GameRenderer12AddForDeleteEP18SparseLightStorage:
    jmp __port_noop
.weak _ZN12GameRenderer12AddForDeleteEP21CompressedTileStorage
.type _ZN12GameRenderer12AddForDeleteEP21CompressedTileStorage, @function
_ZN12GameRenderer12AddForDeleteEP21CompressedTileStorage:
    jmp __port_noop
.weak _ZN12GameRenderer14setupGuiScreenEi
.type _ZN12GameRenderer14setupGuiScreenEi, @function
_ZN12GameRenderer14setupGuiScreenEi:
    jmp __port_noop
.weak _ZN12GameRenderer18EnableUpdateThreadEv
.type _ZN12GameRenderer18EnableUpdateThreadEv, @function
_ZN12GameRenderer18EnableUpdateThreadEv:
    jmp __port_noop
.weak _ZN12GameRenderer19DisableUpdateThreadEv
.type _ZN12GameRenderer19DisableUpdateThreadEv, @function
_ZN12GameRenderer19DisableUpdateThreadEv:
    jmp __port_noop
.weak _ZN12GameRenderer19FinishedReassigningEv
.type _ZN12GameRenderer19FinishedReassigningEv, @function
_ZN12GameRenderer19FinishedReassigningEv:
    jmp __port_noop
.weak _ZN12GuiComponent10drawStringEP4FontRKNSt7__cxx1112basic_stringIwSt11char_traitsIwESaIwEEEiii
.type _ZN12GuiComponent10drawStringEP4FontRKNSt7__cxx1112basic_stringIwSt11char_traitsIwESaIwEEEiii, @function
_ZN12GuiComponent10drawStringEP4FontRKNSt7__cxx1112basic_stringIwSt11char_traitsIwESaIwEEEiii:
    jmp __port_noop
.weak _ZN12GuiComponent4fillEiiiii
.type _ZN12GuiComponent4fillEiiiii, @function
_ZN12GuiComponent4fillEiiiii:
    jmp __port_noop
.weak _ZN12GuiComponentC2Ev
.type _ZN12GuiComponentC2Ev, @function
_ZN12GuiComponentC2Ev:
    jmp __port_noop
.weak _ZN12ItemRenderer21renderAndDecorateItemEP4FontP8TexturesSt10shared_ptrI12ItemInstanceEii
.type _ZN12ItemRenderer21renderAndDecorateItemEP4FontP8TexturesSt10shared_ptrI12ItemInstanceEii, @function
_ZN12ItemRenderer21renderAndDecorateItemEP4FontP8TexturesSt10shared_ptrI12ItemInstanceEii:
    jmp __port_noop
.weak _ZN12ItemRenderer24renderGuiItemDecorationsEP4FontP8TexturesSt10shared_ptrI12ItemInstanceEiif
.type _ZN12ItemRenderer24renderGuiItemDecorationsEP4FontP8TexturesSt10shared_ptrI12ItemInstanceEiif, @function
_ZN12ItemRenderer24renderGuiItemDecorationsEP4FontP8TexturesSt10shared_ptrI12ItemInstanceEiif:
    jmp __port_noop
.weak _ZN12ItemRendererC1Ev
.type _ZN12ItemRendererC1Ev, @function
_ZN12ItemRendererC1Ev:
    jmp __port_noop
.weak _ZN12RemotePlayerC1EP5LevelRKNSt7__cxx1112basic_stringIwSt11char_traitsIwESaIwEEE
.type _ZN12RemotePlayerC1EP5LevelRKNSt7__cxx1112basic_stringIwSt11char_traitsIwESaIwEEE, @function
_ZN12RemotePlayerC1EP5LevelRKNSt7__cxx1112basic_stringIwSt11char_traitsIwESaIwEEE:
    jmp __port_noop
.weak _ZN12TutorialMode12destroyBlockEiiii
.type _ZN12TutorialMode12destroyBlockEiiii, @function
_ZN12TutorialMode12destroyBlockEiiii:
    jmp __port_noop
.weak _ZN12TutorialMode14isInputAllowedEi
.type _ZN12TutorialMode14isInputAllowedEi, @function
_ZN12TutorialMode14isInputAllowedEi:
    jmp __port_noop
.weak _ZN12TutorialMode17startDestroyBlockEiiii
.type _ZN12TutorialMode17startDestroyBlockEiiii, @function
_ZN12TutorialMode17startDestroyBlockEiiii:
    jmp __port_noop
.weak _ZN12TutorialMode4tickEv
.type _ZN12TutorialMode4tickEv, @function
_ZN12TutorialMode4tickEv:
    jmp __port_noop
.weak _ZN12TutorialMode6attackESt10shared_ptrI6PlayerES0_I6EntityE
.type _ZN12TutorialMode6attackESt10shared_ptrI6PlayerES0_I6EntityE, @function
_ZN12TutorialMode6attackESt10shared_ptrI6PlayerES0_I6EntityE:
    jmp __port_noop
.weak _ZN12TutorialMode9useItemOnESt10shared_ptrI6PlayerEP5LevelS0_I12ItemInstanceEiiiiP4Vec3bPb
.type _ZN12TutorialMode9useItemOnESt10shared_ptrI6PlayerEP5LevelS0_I12ItemInstanceEiiiiP4Vec3bPb, @function
_ZN12TutorialMode9useItemOnESt10shared_ptrI6PlayerEP5LevelS0_I12ItemInstanceEiiiiP4Vec3bPb:
    jmp __port_noop
.weak _ZN12TutorialModeC2EiP9MinecraftP16ClientConnection
.type _ZN12TutorialModeC2EiP9MinecraftP16ClientConnection, @function
_ZN12TutorialModeC2EiP9MinecraftP16ClientConnection:
    jmp __port_noop
.weak _ZN12TutorialModeD2Ev
.type _ZN12TutorialModeD2Ev, @function
_ZN12TutorialModeD2Ev:
    jmp __port_noop
.weak _ZN12UIController11GetTopSceneEi8EUILayer8EUIGroup
.type _ZN12UIController11GetTopSceneEi8EUILayer8EUIGroup, @function
_ZN12UIController11GetTopSceneEi8EUILayer8EUIGroup:
    jmp __port_noop
.weak _ZN12UIController11SetTooltipsEjiiiiiiiiib
.type _ZN12UIController11SetTooltipsEjiiiiiiiiib, @function
_ZN12UIController11SetTooltipsEjiiiiiiiiib:
    jmp __port_noop
.weak _ZN12UIController12NavigateBackEib8EUIScene8EUILayer
.type _ZN12UIController12NavigateBackEib8EUIScene8EUILayer, @function
_ZN12UIController12NavigateBackEib8EUIScene8EUILayer:
    jmp __port_noop
.weak _ZN12UIController13CloseUIScenesEib
.type _ZN12UIController13CloseUIScenesEib, @function
_ZN12UIController13CloseUIScenesEib:
    jmp __port_noop
.weak _ZN12UIController14IsSceneInStackEi8EUIScene
.type _ZN12UIController14IsSceneInStackEi8EUIScene, @function
_ZN12UIController14IsSceneInStackEi8EUIScene:
    jmp __port_noop
.weak _ZN12UIController14logDebugStringERKNSt7__cxx1112basic_stringIcSt11char_traitsIcESaIcEEE
.type _ZN12UIController14logDebugStringERKNSt7__cxx1112basic_stringIcSt11char_traitsIcESaIcEEE, @function
_ZN12UIController14logDebugStringERKNSt7__cxx1112basic_stringIcSt11char_traitsIcESaIcEEE:
    jmp __port_noop
.weak _ZN12UIController15DisplayGamertagEjb
.type _ZN12UIController15DisplayGamertagEjb, @function
_ZN12UIController15DisplayGamertagEjb:
    jmp __port_noop
.weak _ZN12UIController15IsReloadingSkinEv
.type _ZN12UIController15IsReloadingSkinEv, @function
_ZN12UIController15IsReloadingSkinEv:
    jmp __port_noop
.weak _ZN12UIController15NavigateToSceneEi8EUIScenePv8EUILayer8EUIGroup
.type _ZN12UIController15NavigateToSceneEi8EUIScenePv8EUILayer8EUIGroup, @function
_ZN12UIController15NavigateToSceneEi8EUIScenePv8EUILayer8EUIGroup:
    jmp __port_noop
.weak _ZN12UIController15RefreshTooltipsEj
.type _ZN12UIController15RefreshTooltipsEj, @function
_ZN12UIController15RefreshTooltipsEj:
    jmp __port_noop
.weak _ZN12UIController15SetWinUserIndexEj
.type _ZN12UIController15SetWinUserIndexEj, @function
_ZN12UIController15SetWinUserIndexEj:
    jmp __port_noop
.weak _ZN12UIController16GetMenuDisplayedEi
.type _ZN12UIController16GetMenuDisplayedEi, @function
_ZN12UIController16GetMenuDisplayedEi:
    jmp __port_noop
.weak _ZN12UIController17CleanUpSkinReloadEv
.type _ZN12UIController17CleanUpSkinReloadEv, @function
_ZN12UIController17CleanUpSkinReloadEv:
    jmp __port_noop
.weak _ZN12UIController17RequestMessageBoxEjjPjjjPFiPviN10CStorage14EMessageResultEES1_P14CStringTablePwjb
.type _ZN12UIController17RequestMessageBoxEjjPjjjPFiPviN10CStorage14EMessageResultEES1_P14CStringTablePwjb, @function
_ZN12UIController17RequestMessageBoxEjjPjjjPFiPviN10CStorage14EMessageResultEES1_P14CStringTablePwjb:
    jmp __port_noop
.weak _ZN12UIController17SetEnableTooltipsEji
.type _ZN12UIController17SetEnableTooltipsEji, @function
_ZN12UIController17SetEnableTooltipsEji:
    jmp __port_noop
.weak _ZN12UIController17ShowSavingMessageEjN10CStorage14ESavingMessageE
.type _ZN12UIController17ShowSavingMessageEjN10CStorage14ESavingMessageE, @function
_ZN12UIController17ShowSavingMessageEjN10CStorage14ESavingMessageE:
    jmp __port_noop
.weak _ZN12UIController18HandleDLCInstalledEi
.type _ZN12UIController18HandleDLCInstalledEi, @function
_ZN12UIController18HandleDLCInstalledEi:
    jmp __port_noop
.weak _ZN12UIController18NavigateToHomeMenuEv
.type _ZN12UIController18NavigateToHomeMenuEv, @function
_ZN12UIController18NavigateToHomeMenuEv:
    jmp __port_noop
.weak _ZN12UIController18ShowUIDebugConsoleEb
.type _ZN12UIController18ShowUIDebugConsoleEb, @function
_ZN12UIController18ShowUIDebugConsoleEb:
    jmp __port_noop
.weak _ZN12UIController20IsPauseMenuDisplayedEi
.type _ZN12UIController20IsPauseMenuDisplayedEi, @function
_ZN12UIController20IsPauseMenuDisplayedEi:
    jmp __port_noop
.weak _ZN12UIController20RequestUGCMessageBoxEjjiPFiPviN10CStorage14EMessageResultEES0_
.type _ZN12UIController20RequestUGCMessageBoxEjjiPFiPviN10CStorage14EMessageResultEES0_, @function
_ZN12UIController20RequestUGCMessageBoxEjjiPFiPviN10CStorage14EMessageResultEES0_:
    jmp __port_noop
.weak _ZN12UIController21CloseAllPlayersScenesEv
.type _ZN12UIController21CloseAllPlayersScenesEv, @function
_ZN12UIController21CloseAllPlayersScenesEv:
    jmp __port_noop
.weak _ZN12UIController21HideAllGameUIElementsEv
.type _ZN12UIController21HideAllGameUIElementsEv, @function
_ZN12UIController21HideAllGameUIElementsEv:
    jmp __port_noop
.weak _ZN12UIController21StartReloadSkinThreadEv
.type _ZN12UIController21StartReloadSkinThreadEv, @function
_ZN12UIController21StartReloadSkinThreadEv:
    jmp __port_noop
.weak _ZN12UIController21UpdateSelectedItemPosEj
.type _ZN12UIController21UpdateSelectedItemPosEj, @function
_ZN12UIController21UpdateSelectedItemPosEj:
    jmp __port_noop
.weak _ZN12UIController22SetTrialTimerLimitSecsEj
.type _ZN12UIController22SetTrialTimerLimitSecsEj, @function
_ZN12UIController22SetTrialTimerLimitSecsEj:
    jmp __port_noop
.weak _ZN12UIController25HandleDLCMountingCompleteEv
.type _ZN12UIController25HandleDLCMountingCompleteEv, @function
_ZN12UIController25HandleDLCMountingCompleteEv:
    jmp __port_noop
.weak _ZN12UIController25ShowOtherPlayersBaseSceneEjb
.type _ZN12UIController25ShowOtherPlayersBaseSceneEjb, @function
_ZN12UIController25ShowOtherPlayersBaseSceneEjb:
    jmp __port_noop
.weak _ZN12UIController25ShowUIDebugMarketingGuideEb
.type _ZN12UIController25ShowUIDebugMarketingGuideEb, @function
_ZN12UIController25ShowUIDebugMarketingGuideEb:
    jmp __port_noop
.weak _ZN12UIController25UpdatePlayerBasePositionsEv
.type _ZN12UIController25UpdatePlayerBasePositionsEv, @function
_ZN12UIController25UpdatePlayerBasePositionsEv:
    jmp __port_noop
.weak _ZN12UIController26ShowAutosaveCountdownTimerEb
.type _ZN12UIController26ShowAutosaveCountdownTimerEb, @function
_ZN12UIController26ShowAutosaveCountdownTimerEb:
    jmp __port_noop
.weak _ZN12UIController4tickEv
.type _ZN12UIController4tickEv, @function
_ZN12UIController4tickEv:
    jmp __port_noop
.weak _ZN12UIController9FindSceneE8EUIScene
.type _ZN12UIController9FindSceneE8EUIScene, @function
_ZN12UIController9FindSceneE8EUIScene:
    jmp __port_noop
.weak _ZN12WolfRendererC1EP5ModelS1_f
.type _ZN12WolfRendererC1EP5ModelS1_f, @function
_ZN12WolfRendererC1EP5ModelS1_f:
    jmp __port_noop
.weak _ZN13BlazeRendererC1Ev
.type _ZN13BlazeRendererC1Ev, @function
_ZN13BlazeRendererC1Ev:
    jmp __port_noop
.weak _ZN13GhastRendererC1Ev
.type _ZN13GhastRendererC1Ev, @function
_ZN13GhastRendererC1Ev:
    jmp __port_noop
.weak _ZN13HumanoidModelC1Ev
.type _ZN13HumanoidModelC1Ev, @function
_ZN13HumanoidModelC1Ev:
    jmp __port_noop
.weak _ZN13LevelRenderer19getGlobalChunkCountEv
.type _ZN13LevelRenderer19getGlobalChunkCountEv, @function
_ZN13LevelRenderer19getGlobalChunkCountEv:
    jmp __port_noop
.weak _ZN13LevelRenderer20DestroyedTileManager16destroyingTileAtEP5Leveliii
.type _ZN13LevelRenderer20DestroyedTileManager16destroyingTileAtEP5Leveliii, @function
_ZN13LevelRenderer20DestroyedTileManager16destroyingTileAtEP5Leveliii:
    jmp __port_noop
.weak _ZN13LevelRenderer20DestroyedTileManager8addAABBsEP5LevelP4AABBPSt6vectorIS4_SaIS4_EE
.type _ZN13LevelRenderer20DestroyedTileManager8addAABBsEP5LevelP4AABBPSt6vectorIS4_SaIS4_EE, @function
_ZN13LevelRenderer20DestroyedTileManager8addAABBsEP5LevelP4AABBPSt6vectorIS4_SaIS4_EE:
    jmp __port_noop
.weak _ZN13LevelRenderer22getGlobalIndexForChunkEiiii
.type _ZN13LevelRenderer22getGlobalIndexForChunkEiiii, @function
_ZN13LevelRenderer22getGlobalIndexForChunkEiiii:
    jmp __port_noop
.weak _ZN13SheepFurModelC1Ev
.type _ZN13SheepFurModelC1Ev, @function
_ZN13SheepFurModelC1Ev:
    jmp __port_noop
.weak _ZN13SheepRendererC1EP5ModelS1_f
.type _ZN13SheepRendererC1EP5ModelS1_f, @function
_ZN13SheepRendererC1EP5ModelS1_f:
    jmp __port_noop
.weak _ZN13SkeletonModelC1Ev
.type _ZN13SkeletonModelC1Ev, @function
_ZN13SkeletonModelC1Ev:
    jmp __port_noop
.weak _ZN13SlimeRendererC1EP5ModelS1_f
.type _ZN13SlimeRendererC1EP5ModelS1_f, @function
_ZN13SlimeRendererC1EP5ModelS1_f:
    jmp __port_noop
.weak _ZN13SquidRendererC1EP5Modelf
.type _ZN13SquidRendererC1EP5Modelf, @function
_ZN13SquidRendererC1EP5Modelf:
    jmp __port_noop
.weak _ZN14DLCTexturePackC1EjP7DLCPackP11TexturePack
.type _ZN14DLCTexturePackC1EjP7DLCPackP11TexturePack, @function
_ZN14DLCTexturePackC1EjP7DLCPackP11TexturePack:
    jmp __port_noop
.weak _ZN14EntityRendererC2Ev
.type _ZN14EntityRendererC2Ev, @function
_ZN14EntityRendererC2Ev:
    jmp __port_noop
.weak _ZN14OzelotRendererC1EP5Modelf
.type _ZN14OzelotRendererC1EP5Modelf, @function
_ZN14OzelotRendererC1EP5Modelf:
    jmp __port_noop
.weak _ZN14ParticleEngine3addESt10shared_ptrI8ParticleE
.type _ZN14ParticleEngine3addESt10shared_ptrI8ParticleE, @function
_ZN14ParticleEngine3addESt10shared_ptrI8ParticleE:
    jmp __port_noop
.weak _ZN14PlayerRendererC1Ev
.type _ZN14PlayerRendererC1Ev, @function
_ZN14PlayerRendererC1Ev:
    jmp __port_noop
.weak _ZN14SpiderRendererC1Ev
.type _ZN14SpiderRendererC1Ev, @function
_ZN14SpiderRendererC1Ev:
    jmp __port_noop
.weak _ZN14ZombieRendererC1Ev
.type _ZN14ZombieRendererC1Ev, @function
_ZN14ZombieRendererC1Ev:
    jmp __port_noop
.weak _ZN15ChickenRendererC1EP5Modelf
.type _ZN15ChickenRendererC1EP5Modelf, @function
_ZN15ChickenRendererC1EP5Modelf:
    jmp __port_noop
.weak _ZN15CreeperRendererC1Ev
.type _ZN15CreeperRendererC1Ev, @function
_ZN15CreeperRendererC1Ev:
    jmp __port_noop
.weak _ZN15ShutdownManager10HasStartedENS_9EThreadIdE
.type _ZN15ShutdownManager10HasStartedENS_9EThreadIdE, @function
_ZN15ShutdownManager10HasStartedENS_9EThreadIdE:
    jmp __port_noop
.weak _ZN15ShutdownManager10HasStartedENS_9EThreadIdEPN9CThread10EventArrayE
.type _ZN15ShutdownManager10HasStartedENS_9EThreadIdEPN9CThread10EventArrayE, @function
_ZN15ShutdownManager10HasStartedENS_9EThreadIdEPN9CThread10EventArrayE:
    jmp __port_noop
.weak _ZN15ShutdownManager11HasFinishedENS_9EThreadIdE
.type _ZN15ShutdownManager11HasFinishedENS_9EThreadIdE, @function
_ZN15ShutdownManager11HasFinishedENS_9EThreadIdE:
    jmp __port_noop
.weak _ZN15ShutdownManager9ShouldRunENS_9EThreadIdE
.type _ZN15ShutdownManager9ShouldRunENS_9EThreadIdE, @function
_ZN15ShutdownManager9ShouldRunENS_9EThreadIdE:
    jmp __port_noop
.weak _ZN15SnowManRendererC1Ev
.type _ZN15SnowManRendererC1Ev, @function
_ZN15SnowManRendererC1Ev:
    jmp __port_noop
.weak _ZN16EndermanRendererC1Ev
.type _ZN16EndermanRendererC1Ev, @function
_ZN16EndermanRendererC1Ev:
    jmp __port_noop
.weak _ZN16FireballRendererC1Ef
.type _ZN16FireballRendererC1Ef, @function
_ZN16FireballRendererC1Ef:
    jmp __port_noop
.weak _ZN16FullTutorialMode10isTutorialEv
.type _ZN16FullTutorialMode10isTutorialEv, @function
_ZN16FullTutorialMode10isTutorialEv:
    jmp __port_noop
.weak _ZN16FullTutorialModeC1EiP9MinecraftP16ClientConnection
.type _ZN16FullTutorialModeC1EiP9MinecraftP16ClientConnection, @function
_ZN16FullTutorialModeC1EiP9MinecraftP16ClientConnection:
    jmp __port_noop
.weak _ZN16FullTutorialModeC2EiP9MinecraftP16ClientConnection
.type _ZN16FullTutorialModeC2EiP9MinecraftP16ClientConnection, @function
_ZN16FullTutorialModeC2EiP9MinecraftP16ClientConnection:
    jmp __port_noop
.weak _ZN16GiantMobRendererC1EP5Modelff
.type _ZN16GiantMobRendererC1EP5Modelff, @function
_ZN16GiantMobRendererC1EP5Modelff:
    jmp __port_noop
.weak _ZN16MinecartRendererC1Ev
.type _ZN16MinecartRendererC1Ev, @function
_ZN16MinecartRendererC1Ev:
    jmp __port_noop
.weak _ZN16PaintingRendererC1Ev
.type _ZN16PaintingRendererC1Ev, @function
_ZN16PaintingRendererC1Ev:
    jmp __port_noop
.weak _ZN16VillagerRendererC1Ev
.type _ZN16VillagerRendererC1Ev, @function
_ZN16VillagerRendererC1Ev:
    jmp __port_noop
.weak _ZN17LavaSlimeRendererC1Ev
.type _ZN17LavaSlimeRendererC1Ev, @function
_ZN17LavaSlimeRendererC1Ev:
    jmp __port_noop
.weak _ZN17NetworkPlayerXbox13GetQNetPlayerEv
.type _ZN17NetworkPlayerXbox13GetQNetPlayerEv, @function
_ZN17NetworkPlayerXbox13GetQNetPlayerEv:
    jmp __port_noop
.weak _ZN17NetworkPlayerXboxC1EP11IQNetPlayer
.type _ZN17NetworkPlayerXboxC1EP11IQNetPlayer, @function
_ZN17NetworkPlayerXboxC1EP11IQNetPlayer:
    jmp __port_noop
.weak _ZN18DefaultTexturePackC1Ev
.type _ZN18DefaultTexturePackC1Ev, @function
_ZN18DefaultTexturePackC1Ev:
    jmp __port_noop
.weak _ZN18ItemSpriteRendererC1EP4Itemi
.type _ZN18ItemSpriteRendererC1EP4Itemi, @function
_ZN18ItemSpriteRendererC1EP4Itemi:
    jmp __port_noop
.weak _ZN18IUIScene_PauseMenu10_ExitWorldEPv
.type _ZN18IUIScene_PauseMenu10_ExitWorldEPv, @function
_ZN18IUIScene_PauseMenu10_ExitWorldEPv:
    jmp __port_noop
.weak _ZN18IUIScene_PauseMenu19ExitWorldThreadProcEPv
.type _ZN18IUIScene_PauseMenu19ExitWorldThreadProcEPv, @function
_ZN18IUIScene_PauseMenu19ExitWorldThreadProcEPv:
    jmp __port_noop
.weak _ZN18IUIScene_PauseMenu19SaveWorldThreadProcEPv
.type _ZN18IUIScene_PauseMenu19SaveWorldThreadProcEPv, @function
_ZN18IUIScene_PauseMenu19SaveWorldThreadProcEPv:
    jmp __port_noop
.weak _ZN18SilverfishRendererC1Ev
.type _ZN18SilverfishRendererC1Ev, @function
_ZN18SilverfishRendererC1Ev:
    jmp __port_noop
.weak _ZN19ConsoleUIController6renderEv
.type _ZN19ConsoleUIController6renderEv, @function
_ZN19ConsoleUIController6renderEv:
    jmp __port_noop
.weak _ZN19EnderDragonRendererC1Ev
.type _ZN19EnderDragonRendererC1Ev, @function
_ZN19EnderDragonRendererC1Ev:
    jmp __port_noop
.weak _ZN19FallingTileRendererC1Ev
.type _ZN19FallingTileRendererC1Ev, @function
_ZN19FallingTileRendererC1Ev:
    jmp __port_noop
.weak _ZN19HumanoidMobRendererC1EP13HumanoidModelf
.type _ZN19HumanoidMobRendererC1EP13HumanoidModelf, @function
_ZN19HumanoidMobRendererC1EP13HumanoidModelf:
    jmp __port_noop
.weak _ZN19MushroomCowRendererC1EP5Modelf
.type _ZN19MushroomCowRendererC1EP5Modelf, @function
_ZN19MushroomCowRendererC1EP5Modelf:
    jmp __port_noop
.weak _ZN20EnderCrystalRendererC1Ev
.type _ZN20EnderCrystalRendererC1Ev, @function
_ZN20EnderCrystalRendererC1Ev:
    jmp __port_noop
.weak _ZN20IUIScene_TradingMenu11getMerchantEv
.type _ZN20IUIScene_TradingMenu11getMerchantEv, @function
_ZN20IUIScene_TradingMenu11getMerchantEv:
    jmp __port_noop
.weak _ZN20RemoveEntitiesPacket14MAX_PER_PACKETE
.type _ZN20RemoveEntitiesPacket14MAX_PER_PACKETE, @function
_ZN20RemoveEntitiesPacket14MAX_PER_PACKETE:
    jmp __port_noop
.weak _ZN20ScreenSizeCalculator8getWidthEv
.type _ZN20ScreenSizeCalculator8getWidthEv, @function
_ZN20ScreenSizeCalculator8getWidthEv:
    jmp __port_noop
.weak _ZN20ScreenSizeCalculator9getHeightEv
.type _ZN20ScreenSizeCalculator9getHeightEv, @function
_ZN20ScreenSizeCalculator9getHeightEv:
    jmp __port_noop
.weak _ZN20ScreenSizeCalculatorC1EP7Optionsiii
.type _ZN20ScreenSizeCalculatorC1EP7Optionsiii, @function
_ZN20ScreenSizeCalculatorC1EP7Optionsiii:
    jmp __port_noop
.weak _ZN21ExperienceOrbRendererC1Ev
.type _ZN21ExperienceOrbRendererC1Ev, @function
_ZN21ExperienceOrbRendererC1Ev:
    jmp __port_noop
.weak _ZN21MultiPlayerChunkCacheC1EP5Level
.type _ZN21MultiPlayerChunkCacheC1EP5Level, @function
_ZN21MultiPlayerChunkCacheC1EP5Level:
    jmp __port_noop
.weak _ZN21TakeAnimationParticleC1EP5LevelSt10shared_ptrI6EntityES4_f
.type _ZN21TakeAnimationParticleC1EP5LevelSt10shared_ptrI6EntityES4_f, @function
_ZN21TakeAnimationParticleC1EP5LevelSt10shared_ptrI6EntityES4_f:
    jmp __port_noop
.weak _ZN21VillagerGolemRendererC1Ev
.type _ZN21VillagerGolemRendererC1Ev, @function
_ZN21VillagerGolemRendererC1Ev:
    jmp __port_noop
.weak _ZN26UIScene_FullscreenProgress15SetWasCancelledEb
.type _ZN26UIScene_FullscreenProgress15SetWasCancelledEb, @function
_ZN26UIScene_FullscreenProgress15SetWasCancelledEb:
    jmp __port_noop
.weak _ZN4Font10drawShadowERKNSt7__cxx1112basic_stringIwSt11char_traitsIwESaIwEEEiii
.type _ZN4Font10drawShadowERKNSt7__cxx1112basic_stringIwSt11char_traitsIwESaIwEEEiii, @function
_ZN4Font10drawShadowERKNSt7__cxx1112basic_stringIwSt11char_traitsIwESaIwEEEiii:
    jmp __port_noop
.weak _ZN4Item10compass_IdE
.type _ZN4Item10compass_IdE, @function
_ZN4Item10compass_IdE:
    jmp __port_noop
.weak _ZN4Item10diamond_IdE
.type _ZN4Item10diamond_IdE, @function
_ZN4Item10diamond_IdE:
    jmp __port_noop
.weak _ZN4Item11beef_raw_IdE
.type _ZN4Item11beef_raw_IdE, @function
_ZN4Item11beef_raw_IdE:
    jmp __port_noop
.weak _ZN4Item11hoe_iron_IdE
.type _ZN4Item11hoe_iron_IdE, @function
_ZN4Item11hoe_iron_IdE:
    jmp __port_noop
.weak _ZN4Item11redStone_IdE
.type _ZN4Item11redStone_IdE, @function
_ZN4Item11redStone_IdE:
    jmp __port_noop
.weak _ZN4Item12expBottle_IdE
.type _ZN4Item12expBottle_IdE, @function
_ZN4Item12expBottle_IdE:
    jmp __port_noop
.weak _ZN4Item12goldIngot_IdE
.type _ZN4Item12goldIngot_IdE, @function
_ZN4Item12goldIngot_IdE:
    jmp __port_noop
.weak _ZN4Item12ironIngot_IdE
.type _ZN4Item12ironIngot_IdE, @function
_ZN4Item12ironIngot_IdE:
    jmp __port_noop
.weak _ZN4Item13boots_iron_IdE
.type _ZN4Item13boots_iron_IdE, @function
_ZN4Item13boots_iron_IdE:
    jmp __port_noop
.weak _ZN4Item13enderPearl_IdE
.type _ZN4Item13enderPearl_IdE, @function
_ZN4Item13enderPearl_IdE:
    jmp __port_noop
.weak _ZN4Item13eyeOfEnder_IdE
.type _ZN4Item13eyeOfEnder_IdE, @function
_ZN4Item13eyeOfEnder_IdE:
    jmp __port_noop
.weak _ZN4Item13sword_iron_IdE
.type _ZN4Item13sword_iron_IdE, @function
_ZN4Item13sword_iron_IdE:
    jmp __port_noop
.weak _ZN4Item14beef_cooked_IdE
.type _ZN4Item14beef_cooked_IdE, @function
_ZN4Item14beef_cooked_IdE:
    jmp __port_noop
.weak _ZN4Item14boots_chain_IdE
.type _ZN4Item14boots_chain_IdE, @function
_ZN4Item14boots_chain_IdE:
    jmp __port_noop
.weak _ZN4Item14boots_cloth_IdE
.type _ZN4Item14boots_cloth_IdE, @function
_ZN4Item14boots_cloth_IdE:
    jmp __port_noop
.weak _ZN4Item14chicken_raw_IdE
.type _ZN4Item14chicken_raw_IdE, @function
_ZN4Item14chicken_raw_IdE:
    jmp __port_noop
.weak _ZN4Item14fish_cooked_IdE
.type _ZN4Item14fish_cooked_IdE, @function
_ZN4Item14fish_cooked_IdE:
    jmp __port_noop
.weak _ZN4Item14helmet_iron_IdE
.type _ZN4Item14helmet_iron_IdE, @function
_ZN4Item14helmet_iron_IdE:
    jmp __port_noop
.weak _ZN4Item14hoe_diamond_IdE
.type _ZN4Item14hoe_diamond_IdE, @function
_ZN4Item14hoe_diamond_IdE:
    jmp __port_noop
.weak _ZN4Item14seeds_melon_IdE
.type _ZN4Item14seeds_melon_IdE, @function
_ZN4Item14seeds_melon_IdE:
    jmp __port_noop
.weak _ZN4Item14seeds_wheat_IdE
.type _ZN4Item14seeds_wheat_IdE, @function
_ZN4Item14seeds_wheat_IdE:
    jmp __port_noop
.weak _ZN4Item14shovel_iron_IdE
.type _ZN4Item14shovel_iron_IdE, @function
_ZN4Item14shovel_iron_IdE:
    jmp __port_noop
.weak _ZN4Item15hatchet_iron_IdE
.type _ZN4Item15hatchet_iron_IdE, @function
_ZN4Item15hatchet_iron_IdE:
    jmp __port_noop
.weak _ZN4Item15helmet_chain_IdE
.type _ZN4Item15helmet_chain_IdE, @function
_ZN4Item15helmet_chain_IdE:
    jmp __port_noop
.weak _ZN4Item15helmet_cloth_IdE
.type _ZN4Item15helmet_cloth_IdE, @function
_ZN4Item15helmet_cloth_IdE:
    jmp __port_noop
.weak _ZN4Item15pickAxe_iron_IdE
.type _ZN4Item15pickAxe_iron_IdE, @function
_ZN4Item15pickAxe_iron_IdE:
    jmp __port_noop
.weak _ZN4Item15porkChop_raw_IdE
.type _ZN4Item15porkChop_raw_IdE, @function
_ZN4Item15porkChop_raw_IdE:
    jmp __port_noop
.weak _ZN4Item15rotten_flesh_IdE
.type _ZN4Item15rotten_flesh_IdE, @function
_ZN4Item15rotten_flesh_IdE:
    jmp __port_noop
.weak _ZN4Item16boots_diamond_IdE
.type _ZN4Item16boots_diamond_IdE, @function
_ZN4Item16boots_diamond_IdE:
    jmp __port_noop
.weak _ZN4Item16flintAndSteel_IdE
.type _ZN4Item16flintAndSteel_IdE, @function
_ZN4Item16flintAndSteel_IdE:
    jmp __port_noop
.weak _ZN4Item16leggings_iron_IdE
.type _ZN4Item16leggings_iron_IdE, @function
_ZN4Item16leggings_iron_IdE:
    jmp __port_noop
.weak _ZN4Item16seeds_pumpkin_IdE
.type _ZN4Item16seeds_pumpkin_IdE, @function
_ZN4Item16seeds_pumpkin_IdE:
    jmp __port_noop
.weak _ZN4Item16sword_diamond_IdE
.type _ZN4Item16sword_diamond_IdE, @function
_ZN4Item16sword_diamond_IdE:
    jmp __port_noop
.weak _ZN4Item17chicken_cooked_IdE
.type _ZN4Item17chicken_cooked_IdE, @function
_ZN4Item17chicken_cooked_IdE:
    jmp __port_noop
.weak _ZN4Item17helmet_diamond_IdE
.type _ZN4Item17helmet_diamond_IdE, @function
_ZN4Item17helmet_diamond_IdE:
    jmp __port_noop
.weak _ZN4Item17leggings_chain_IdE
.type _ZN4Item17leggings_chain_IdE, @function
_ZN4Item17leggings_chain_IdE:
    jmp __port_noop
.weak _ZN4Item17leggings_cloth_IdE
.type _ZN4Item17leggings_cloth_IdE, @function
_ZN4Item17leggings_cloth_IdE:
    jmp __port_noop
.weak _ZN4Item17shovel_diamond_IdE
.type _ZN4Item17shovel_diamond_IdE, @function
_ZN4Item17shovel_diamond_IdE:
    jmp __port_noop
.weak _ZN4Item18chestplate_iron_IdE
.type _ZN4Item18chestplate_iron_IdE, @function
_ZN4Item18chestplate_iron_IdE:
    jmp __port_noop
.weak _ZN4Item18hatchet_diamond_IdE
.type _ZN4Item18hatchet_diamond_IdE, @function
_ZN4Item18hatchet_diamond_IdE:
    jmp __port_noop
.weak _ZN4Item18pickAxe_diamond_IdE
.type _ZN4Item18pickAxe_diamond_IdE, @function
_ZN4Item18pickAxe_diamond_IdE:
    jmp __port_noop
.weak _ZN4Item18porkChop_cooked_IdE
.type _ZN4Item18porkChop_cooked_IdE, @function
_ZN4Item18porkChop_cooked_IdE:
    jmp __port_noop
.weak _ZN4Item19chestplate_chain_IdE
.type _ZN4Item19chestplate_chain_IdE, @function
_ZN4Item19chestplate_chain_IdE:
    jmp __port_noop
.weak _ZN4Item19chestplate_cloth_IdE
.type _ZN4Item19chestplate_cloth_IdE, @function
_ZN4Item19chestplate_cloth_IdE:
    jmp __port_noop
.weak _ZN4Item19leggings_diamond_IdE
.type _ZN4Item19leggings_diamond_IdE, @function
_ZN4Item19leggings_diamond_IdE:
    jmp __port_noop
.weak _ZN4Item21chestplate_diamond_IdE
.type _ZN4Item21chestplate_diamond_IdE, @function
_ZN4Item21chestplate_diamond_IdE:
    jmp __port_noop
.weak _ZN4Item7book_IdE
.type _ZN4Item7book_IdE, @function
_ZN4Item7book_IdE:
    jmp __port_noop
.weak _ZN4Item7coal_IdE
.type _ZN4Item7coal_IdE, @function
_ZN4Item7coal_IdE:
    jmp __port_noop
.weak _ZN4Item8apple_IdE
.type _ZN4Item8apple_IdE, @function
_ZN4Item8apple_IdE:
    jmp __port_noop
.weak _ZN4Item8arrow_IdE
.type _ZN4Item8arrow_IdE, @function
_ZN4Item8arrow_IdE:
    jmp __port_noop
.weak _ZN4Item8bread_IdE
.type _ZN4Item8bread_IdE, @function
_ZN4Item8bread_IdE:
    jmp __port_noop
.weak _ZN4Item8clock_IdE
.type _ZN4Item8clock_IdE, @function
_ZN4Item8clock_IdE:
    jmp __port_noop
.weak _ZN4Item8melon_IdE
.type _ZN4Item8melon_IdE, @function
_ZN4Item8melon_IdE:
    jmp __port_noop
.weak _ZN4Item8paper_IdE
.type _ZN4Item8paper_IdE, @function
_ZN4Item8paper_IdE:
    jmp __port_noop
.weak _ZN4Item8wheat_IdE
.type _ZN4Item8wheat_IdE, @function
_ZN4Item8wheat_IdE:
    jmp __port_noop
.weak _ZN4Item9cookie_IdE
.type _ZN4Item9cookie_IdE, @function
_ZN4Item9cookie_IdE:
    jmp __port_noop
.weak _ZN4Item9saddle_IdE
.type _ZN4Item9saddle_IdE, @function
_ZN4Item9saddle_IdE:
    jmp __port_noop
.weak _ZN4Item9shears_IdE
.type _ZN4Item9shears_IdE, @function
_ZN4Item9shears_IdE:
    jmp __port_noop
.weak _ZN4Tile11lightGem_IdE
.type _ZN4Tile11lightGem_IdE, @function
_ZN4Tile11lightGem_IdE:
    jmp __port_noop
.weak _ZN4Tile12bookshelf_IdE
.type _ZN4Tile12bookshelf_IdE, @function
_ZN4Tile12bookshelf_IdE:
    jmp __port_noop
.weak _ZN4Tile8cloth_IdE
.type _ZN4Tile8cloth_IdE, @function
_ZN4Tile8cloth_IdE:
    jmp __port_noop
.weak _ZN4Tile8glass_IdE
.type _ZN4Tile8glass_IdE, @function
_ZN4Tile8glass_IdE:
    jmp __port_noop
.weak _ZN7Minimap13reloadColoursEv
.type _ZN7Minimap13reloadColoursEv, @function
_ZN7Minimap13reloadColoursEv:
    jmp __port_noop
.weak _ZN8CowModelC1Ev
.type _ZN8CowModelC1Ev, @function
_ZN8CowModelC1Ev:
    jmp __port_noop
.weak _ZN8Lighting6turnOnEv
.type _ZN8Lighting6turnOnEv, @function
_ZN8Lighting6turnOnEv:
    jmp __port_noop
.weak _ZN8Lighting7turnOffEv
.type _ZN8Lighting7turnOffEv, @function
_ZN8Lighting7turnOffEv:
    jmp __port_noop
.weak _ZN8PigModelC1Ef
.type _ZN8PigModelC1Ef, @function
_ZN8PigModelC1Ef:
    jmp __port_noop
.weak _ZN8PigModelC1Ev
.type _ZN8PigModelC1Ev, @function
_ZN8PigModelC1Ev:
    jmp __port_noop
.weak _ZN8Textures11bindTextureEi
.type _ZN8Textures11bindTextureEi, @function
_ZN8Textures11bindTextureEi:
    jmp __port_noop
.weak _ZN8Textures9reloadAllEv
.type _ZN8Textures9reloadAllEv, @function
_ZN8Textures9reloadAllEv:
    jmp __port_noop
.weak _ZN8Tutorial10setMessageERKNSt7__cxx1112basic_stringIwSt11char_traitsIwESaIwEEEii
.type _ZN8Tutorial10setMessageERKNSt7__cxx1112basic_stringIwSt11char_traitsIwESaIwEEEii, @function
_ZN8Tutorial10setMessageERKNSt7__cxx1112basic_stringIwSt11char_traitsIwESaIwEEEii:
    jmp __port_noop
.weak _ZN8Tutorial15onEffectChangedEP9MobEffectb
.type _ZN8Tutorial15onEffectChangedEP9MobEffectb, @function
_ZN8Tutorial15onEffectChangedEP9MobEffectb:
    jmp __port_noop
.weak _ZN8Tutorial17canMoveToPositionEdddddd
.type _ZN8Tutorial17canMoveToPositionEdddddd, @function
_ZN8Tutorial17canMoveToPositionEdddddd:
    jmp __port_noop
.weak _ZN8Tutorial17completeUsingItemESt10shared_ptrI12ItemInstanceE
.type _ZN8Tutorial17completeUsingItemESt10shared_ptrI12ItemInstanceE, @function
_ZN8Tutorial17completeUsingItemESt10shared_ptrI12ItemInstanceE:
    jmp __port_noop
.weak _ZN8Tutorial17showTutorialPopupEb
.type _ZN8Tutorial17showTutorialPopupEb, @function
_ZN8Tutorial17showTutorialPopupEb:
    jmp __port_noop
.weak _ZN8Tutorial19changeTutorialStateE15eTutorial_StateP7UIScene
.type _ZN8Tutorial19changeTutorialStateE15eTutorial_StateP7UIScene, @function
_ZN8Tutorial19changeTutorialStateE15eTutorial_StateP7UIScene:
    jmp __port_noop
.weak _ZN8TutorialC1Eib
.type _ZN8TutorialC1Eib, @function
_ZN8TutorialC1Eib:
    jmp __port_noop
.weak _ZN9C_4JInput14IsPadConnectedEi
.type _ZN9C_4JInput14IsPadConnectedEi, @function
_ZN9C_4JInput14IsPadConnectedEi:
    jmp __port_noop
.weak _ZN9C_4JInput15GetJoypadMapValEi
.type _ZN9C_4JInput15GetJoypadMapValEi, @function
_ZN9C_4JInput15GetJoypadMapValEi:
    jmp __port_noop
.weak _ZN9C_4JInput15SetJoypadMapValEih
.type _ZN9C_4JInput15SetJoypadMapValEih, @function
_ZN9C_4JInput15SetJoypadMapValEih:
    jmp __port_noop
.weak _ZN9C_4JInput16SetDebugSequenceEPKcPFiPvES2_
.type _ZN9C_4JInput16SetDebugSequenceEPKcPFiPvES2_, @function
_ZN9C_4JInput16SetDebugSequenceEPKcPFiPvES2_:
    jmp __port_noop
.weak _ZN9C_4JInput17GetGameJoypadMapsEhh
.type _ZN9C_4JInput17GetGameJoypadMapsEhh, @function
_ZN9C_4JInput17GetGameJoypadMapsEhh:
    jmp __port_noop
.weak _ZN9C_4JInput21SetJoypadStickAxisMapEijj
.type _ZN9C_4JInput21SetJoypadStickAxisMapEijj, @function
_ZN9C_4JInput21SetJoypadStickAxisMapEijj:
    jmp __port_noop
.weak _ZN9C_4JInput24SetJoypadStickTriggerMapEijj
.type _ZN9C_4JInput24SetJoypadStickTriggerMapEijj, @function
_ZN9C_4JInput24SetJoypadStickTriggerMapEijj:
    jmp __port_noop
.weak _ZN9C_4JInput4TickEv
.type _ZN9C_4JInput4TickEv, @function
_ZN9C_4JInput4TickEv:
    jmp __port_noop
.weak _ZN9CRender10StartFrameEv
.type _ZN9CRender10StartFrameEv, @function
_ZN9CRender10StartFrameEv:
    jmp __port_noop
.weak _ZN9CRender11UpdateGammaEt
.type _ZN9CRender11UpdateGammaEt, @function
_ZN9CRender11UpdateGammaEt:
    jmp __port_noop
.weak _ZN9CRender12IsWidescreenEv
.type _ZN9CRender12IsWidescreenEv, @function
_ZN9CRender12IsWidescreenEv:
    jmp __port_noop
.weak _ZN9CRender4TickEv
.type _ZN9CRender4TickEv, @function
_ZN9CRender4TickEv:
    jmp __port_noop
.weak _ZN9CRender7IsHiDefEv
.type _ZN9CRender7IsHiDefEv, @function
_ZN9CRender7IsHiDefEv:
    jmp __port_noop
.weak _ZN9CRender7PresentEv
.type _ZN9CRender7PresentEv, @function
_ZN9CRender7PresentEv:
    jmp __port_noop
.weak _ZN9Minecraft10isTutorialEv
.type _ZN9Minecraft10isTutorialEv, @function
_ZN9Minecraft10isTutorialEv:
    jmp __port_noop
.weak _ZN9Minecraft12gatherStats1B5cxx11Ev
.type _ZN9Minecraft12gatherStats1B5cxx11Ev, @function
_ZN9Minecraft12gatherStats1B5cxx11Ev:
    jmp __port_noop
.weak _ZN9Minecraft12gatherStats2B5cxx11Ev
.type _ZN9Minecraft12gatherStats2B5cxx11Ev, @function
_ZN9Minecraft12gatherStats2B5cxx11Ev:
    jmp __port_noop
.weak _ZN9Minecraft12gatherStats3B5cxx11Ev
.type _ZN9Minecraft12gatherStats3B5cxx11Ev, @function
_ZN9Minecraft12gatherStats3B5cxx11Ev:
    jmp __port_noop
.weak _ZN9Minecraft12gatherStats4B5cxx11Ev
.type _ZN9Minecraft12gatherStats4B5cxx11Ev, @function
_ZN9Minecraft12gatherStats4B5cxx11Ev:
    jmp __port_noop
.weak _ZN9Minecraft12isClientSideEv
.type _ZN9Minecraft12isClientSideEv, @function
_ZN9Minecraft12isClientSideEv:
    jmp __port_noop
.weak _ZN9Minecraft13respawnPlayerEiii
.type _ZN9Minecraft13respawnPlayerEiii, @function
_ZN9Minecraft13respawnPlayerEiii:
    jmp __port_noop
.weak _ZN9Minecraft14forceStatsSaveEi
.type _ZN9Minecraft14forceStatsSaveEi, @function
_ZN9Minecraft14forceStatsSaveEi:
    jmp __port_noop
.weak _ZN9Minecraft14getColourTableEv
.type _ZN9Minecraft14getColourTableEv, @function
_ZN9Minecraft14getColourTableEv:
    jmp __port_noop
.weak _ZN9Minecraft16useFancyGraphicsEv
.type _ZN9Minecraft16useFancyGraphicsEv, @function
_ZN9Minecraft16useFancyGraphicsEv:
    jmp __port_noop
.weak _ZN9Minecraft17getLocalPlayerIdxEv
.type _ZN9Minecraft17getLocalPlayerIdxEv, @function
_ZN9Minecraft17getLocalPlayerIdxEv:
    jmp __port_noop
.weak _ZN9Minecraft17setLocalPlayerIdxEi
.type _ZN9Minecraft17setLocalPlayerIdxEi, @function
_ZN9Minecraft17setLocalPlayerIdxEi:
    jmp __port_noop
.weak _ZN9Minecraft18delayTextureReloadEv
.type _ZN9Minecraft18delayTextureReloadEv, @function
_ZN9Minecraft18delayTextureReloadEv:
    jmp __port_noop
.weak _ZN9Minecraft18playerLeftTutorialEi
.type _ZN9Minecraft18playerLeftTutorialEi, @function
_ZN9Minecraft18playerLeftTutorialEi:
    jmp __port_noop
.weak _ZN9Minecraft18tickAllConnectionsEv
.type _ZN9Minecraft18tickAllConnectionsEv, @function
_ZN9Minecraft18tickAllConnectionsEv:
    jmp __port_noop
.weak _ZN9Minecraft20removeLocalPlayerIdxEi
.type _ZN9Minecraft20removeLocalPlayerIdxEi, @function
_ZN9Minecraft20removeLocalPlayerIdxEi:
    jmp __port_noop
.weak _ZN9Minecraft21clearConnectionFailedEv
.type _ZN9Minecraft21clearConnectionFailedEv, @function
_ZN9Minecraft21clearConnectionFailedEv:
    jmp __port_noop
.weak _ZN9Minecraft22createExtraLocalPlayerEiRKNSt7__cxx1112basic_stringIwSt11char_traitsIwESaIwEEEiiP16ClientConnectionP16MultiPlayerLevel
.type _ZN9Minecraft22createExtraLocalPlayerEiRKNSt7__cxx1112basic_stringIwSt11char_traitsIwESaIwEEEiiP16ClientConnectionP16MultiPlayerLevel, @function
_ZN9Minecraft22createExtraLocalPlayerEiRKNSt7__cxx1112basic_stringIwSt11char_traitsIwESaIwEEEiiP16ClientConnectionP16MultiPlayerLevel:
    jmp __port_noop
.weak _ZN9Minecraft23getCurrentTexturePackIdEv
.type _ZN9Minecraft23getCurrentTexturePackIdEv, @function
_ZN9Minecraft23getCurrentTexturePackIdEv:
    jmp __port_noop
.weak _ZN9Minecraft24createPrimaryLocalPlayerEi
.type _ZN9Minecraft24createPrimaryLocalPlayerEi, @function
_ZN9Minecraft24createPrimaryLocalPlayerEi:
    jmp __port_noop
.weak _ZN9Minecraft25addPendingLocalConnectionEiP16ClientConnection
.type _ZN9Minecraft25addPendingLocalConnectionEiP16ClientConnection, @function
_ZN9Minecraft25addPendingLocalConnectionEiP16ClientConnection:
    jmp __port_noop
.weak _ZN9Minecraft27handleClientTextureReceivedERKNSt7__cxx1112basic_stringIwSt11char_traitsIwESaIwEEE
.type _ZN9Minecraft27handleClientTextureReceivedERKNSt7__cxx1112basic_stringIwSt11char_traitsIwESaIwEEE, @function
_ZN9Minecraft27handleClientTextureReceivedERKNSt7__cxx1112basic_stringIwSt11char_traitsIwESaIwEEE:
    jmp __port_noop
.weak _ZN9Minecraft30addPendingClientTextureRequestERKNSt7__cxx1112basic_stringIwSt11char_traitsIwESaIwEEE
.type _ZN9Minecraft30addPendingClientTextureRequestERKNSt7__cxx1112basic_stringIwSt11char_traitsIwESaIwEEE, @function
_ZN9Minecraft30addPendingClientTextureRequestERKNSt7__cxx1112basic_stringIwSt11char_traitsIwESaIwEEE:
    jmp __port_noop
.weak _ZN9Minecraft31updatePlayerViewportAssignmentsEv
.type _ZN9Minecraft31updatePlayerViewportAssignmentsEv, @function
_ZN9Minecraft31updatePlayerViewportAssignmentsEv:
    jmp __port_noop
.weak _ZN9Minecraft8getLevelEi
.type _ZN9Minecraft8getLevelEi, @function
_ZN9Minecraft8getLevelEi:
    jmp __port_noop
.weak _ZN9Minecraft8setLevelEP16MultiPlayerLeveliSt10shared_ptrI6PlayerEbb
.type _ZN9Minecraft8setLevelEP16MultiPlayerLeveliSt10shared_ptrI6PlayerEbb, @function
_ZN9Minecraft8setLevelEP16MultiPlayerLeveliSt10shared_ptrI6PlayerEbb:
    jmp __port_noop
.weak _ZN9Minecraft9setScreenEP6Screen
.type _ZN9Minecraft9setScreenEP6Screen, @function
_ZN9Minecraft9setScreenEP6Screen:
    jmp __port_noop
.weak _ZN9Minecraft9warezTimeE
.type _ZN9Minecraft9warezTimeE, @function
_ZN9Minecraft9warezTimeE:
    jmp __port_noop
.weak _ZN9WolfModelC1Ev
.type _ZN9WolfModelC1Ev, @function
_ZN9WolfModelC1Ev:
    jmp __port_noop
.weak _ZThn1072_N11LocalPlayer13hasPermissionE12EGameCommand
.type _ZThn1072_N11LocalPlayer13hasPermissionE12EGameCommand, @function
_ZThn1072_N11LocalPlayer13hasPermissionE12EGameCommand:
    jmp __port_noop
.section .bss
.weak InputManager
.align 16
.type InputManager, @object
.size InputManager, 16384
InputManager:
    .zero 16384
.weak RenderManager
.align 16
.type RenderManager, @object
.size RenderManager, 16384
RenderManager:
    .zero 16384
.weak StorageManager
.align 16
.type StorageManager, @object
.size StorageManager, 16384
StorageManager:
    .zero 16384
.weak ui
.align 16
.type ui, @object
.size ui, 16384
ui:
    .zero 16384
.weak _ZTI10ChatScreen
.align 16
.type _ZTI10ChatScreen, @object
.size _ZTI10ChatScreen, 512
_ZTI10ChatScreen:
    .zero 512
.weak _ZTI11LocalPlayer
.align 16
.type _ZTI11LocalPlayer, @object
.size _ZTI11LocalPlayer, 512
_ZTI11LocalPlayer:
    .zero 512
.weak _ZTI12RemotePlayer
.align 16
.type _ZTI12RemotePlayer, @object
.size _ZTI12RemotePlayer, 512
_ZTI12RemotePlayer:
    .zero 512
.weak _ZTI12TutorialMode
.align 16
.type _ZTI12TutorialMode, @object
.size _ZTI12TutorialMode, 512
_ZTI12TutorialMode:
    .zero 512
.weak _ZTI16FullTutorialMode
.align 16
.type _ZTI16FullTutorialMode, @object
.size _ZTI16FullTutorialMode, 512
_ZTI16FullTutorialMode:
    .zero 512
.weak _ZTI6Screen
.align 16
.type _ZTI6Screen, @object
.size _ZTI6Screen, 512
_ZTI6Screen:
    .zero 512
.weak _ZTV13ArrowRenderer
.align 16
.type _ZTV13ArrowRenderer, @object
.size _ZTV13ArrowRenderer, 512
_ZTV13ArrowRenderer:
    .zero 512
.weak _ZTV15DefaultRenderer
.align 16
.type _ZTV15DefaultRenderer, @object
.size _ZTV15DefaultRenderer, 512
_ZTV15DefaultRenderer:
    .zero 512
.weak _ZTV16FullTutorialMode
.align 16
.type _ZTV16FullTutorialMode, @object
.size _ZTV16FullTutorialMode, 512
_ZTV16FullTutorialMode:
    .zero 512
.weak _ZTV17ItemFrameRenderer
.align 16
.type _ZTV17ItemFrameRenderer, @object
.size _ZTV17ItemFrameRenderer, 512
_ZTV17ItemFrameRenderer:
    .zero 512
.weak _ZTV19FishingHookRenderer
.align 16
.type _ZTV19FishingHookRenderer, @object
.size _ZTV19FishingHookRenderer, 512
_ZTV19FishingHookRenderer:
    .zero 512
.weak _ZTV21LightningBoltRenderer
.align 16
.type _ZTV21LightningBoltRenderer, @object
.size _ZTV21LightningBoltRenderer, 512
_ZTV21LightningBoltRenderer:
    .zero 512
